Certificate:
    Data:
        Version: 3 (0x2)
        Serial Number: 196608 (0x30000)
    Signature Algorithm: sha512WithRSAEncryption
        Issuer: C=US, ST=Tennessee, L=Knoxville, O=University of Tennessee, OU=Electrical Engineering and Computer Science Department, CN=Internal CA/emailAddress=ithelp@eecs.utk.edu
        Validity
            Not Before: Mar 15 16:50:21 2015 GMT
            Not After : Mar 13 16:50:21 2020 GMT
        Subject: C=US, ST=Tennessee, L=Knoxville, O=University of Tennessee, OU=Electrical Engineering and Computer Science Department, CN=Internal CA/emailAddress=ithelp@eecs.utk.edu
        Subject Public Key Info:
            Public Key Algorithm: rsaEncryption
                Public-Key: (4096 bit)
                Modulus:
                    00:bf:0a:0e:58:fc:39:9d:14:01:95:db:4f:f5:07:
                    6a:de:fd:bb:d8:0d:90:76:4a:89:0c:c8:44:e2:63:
                    b5:73:20:d9:58:eb:34:ea:09:ad:f1:0d:89:ef:15:
                    98:4c:a1:36:1d:05:7b:01:f6:38:24:8d:fb:c6:9b:
                    93:9e:30:51:ca:d0:db:c8:6e:24:d3:f1:a3:e8:37:
                    dc:78:26:2a:f7:6d:56:da:a7:c6:d0:f6:eb:43:c9:
                    06:40:12:84:87:ad:04:57:67:bc:85:60:24:f8:d9:
                    ea:4c:7b:59:95:f3:c2:58:21:1b:e4:a9:8f:14:dd:
                    e5:60:6e:e8:d9:f3:5e:12:5b:fc:c1:bb:ce:aa:95:
                    f8:1b:22:bd:35:2e:6f:0a:ab:1c:55:1a:46:15:05:
                    be:c8:7a:28:c6:e8:17:40:34:63:6b:8c:e7:bd:2c:
                    23:bb:fd:c1:cf:a6:49:ef:82:63:db:d9:96:ba:31:
                    27:71:93:32:59:66:3a:ec:24:ec:08:76:af:ee:9a:
                    26:63:63:c3:e8:d5:0e:ec:15:9e:1a:ab:b6:80:89:
                    d8:4b:84:9c:bc:0d:d8:4b:e5:9f:dd:e4:e6:a2:e2:
                    16:d1:9d:66:3b:d1:8d:56:33:93:99:3a:81:9d:fa:
                    59:32:83:d1:92:66:06:ea:db:04:f6:1d:3b:8f:a7:
                    60:ae:b2:57:2f:30:30:70:98:65:64:38:78:33:39:
                    41:15:1c:a6:61:3b:0f:b9:1b:ac:8b:af:7a:f0:18:
                    3a:ba:a5:03:d2:d9:31:2d:12:77:c8:5d:db:1d:4e:
                    df:2d:be:dd:ec:c0:de:70:fd:ae:2f:de:6d:25:ad:
                    de:96:ee:cd:b3:9f:2a:c6:ab:78:37:32:17:3e:8d:
                    28:1b:2e:3f:6a:66:9b:67:1a:65:c0:bd:d8:fc:14:
                    e8:e4:8a:a2:76:78:c7:9b:7e:e6:36:f7:c9:7c:7f:
                    f0:96:26:f0:ef:7a:4b:25:be:8e:d9:e0:19:20:8c:
                    69:c4:4b:88:10:aa:84:62:1c:49:0f:50:94:fd:4b:
                    9f:ba:3a:c4:49:dc:b7:67:ab:50:f8:55:c1:fb:dd:
                    ea:ba:48:28:4a:e6:91:09:f2:40:32:ad:48:d2:00:
                    d0:e3:0a:2d:7f:57:f0:c9:1f:85:6b:02:20:03:cd:
                    b1:24:d0:e4:7d:eb:d5:9b:3e:1f:2a:63:9a:ad:77:
                    29:9d:a8:a6:b5:f2:92:2e:06:19:9a:88:1c:65:e7:
                    d3:11:8f:92:d4:37:9f:df:c2:d6:c1:e2:3b:3b:bf:
                    9e:88:c7:97:be:bd:05:8e:50:d6:f1:15:a4:fa:cb:
                    13:7b:f0:42:73:ba:92:dc:5a:bc:e0:c0:dd:8a:dc:
                    14:37:43
                Exponent: 65537 (0x10001)
        X509v3 extensions:
            X509v3 Subject Key Identifier: 
                E9:59:9F:17:34:A4:02:46:C2:78:9E:CE:4E:FC:A6:60:7C:F7:F5:71
            X509v3 Authority Key Identifier: 
                keyid:E9:59:9F:17:34:A4:02:46:C2:78:9E:CE:4E:FC:A6:60:7C:F7:F5:71

            X509v3 Basic Constraints: critical
                CA:TRUE, pathlen:1
            X509v3 Key Usage: 
                Digital Signature, Certificate Sign, CRL Sign
            X509v3 Subject Alternative Name: 
                email:ithelp@eecs.utk.edu
    Signature Algorithm: sha512WithRSAEncryption
         09:d1:a4:64:87:d4:f4:26:f1:96:2b:94:15:bd:33:10:43:44:
         c0:17:59:6d:91:20:7e:d2:8c:b1:a5:51:31:94:f4:6c:49:8c:
         72:2c:a1:7f:44:cf:cb:9e:9a:85:1e:0f:76:45:70:ce:69:92:
         5a:cd:34:9d:51:f2:d6:93:85:99:d4:6e:5b:73:90:20:0b:e4:
         b5:60:0b:2d:d0:c5:95:48:5d:20:6e:75:3c:07:93:34:b4:6e:
         82:af:36:88:fd:bc:5b:80:d1:12:a7:46:43:c3:76:75:a9:21:
         a7:0b:be:e7:b2:c8:15:fb:d5:1a:da:19:9f:57:b2:ec:de:5d:
         c5:95:8a:6d:e1:eb:cc:d5:47:4f:ac:8c:dd:e8:e2:73:73:94:
         de:8b:3e:6e:39:3e:97:ca:55:86:f1:f0:fb:45:84:32:b7:9a:
         7d:9a:35:5c:48:ad:1f:cd:24:90:31:8f:3a:38:8b:c1:dc:6a:
         ca:4a:d9:53:5b:2d:9d:57:3a:ba:5a:40:55:40:13:07:bb:3c:
         4e:ac:7d:36:5e:b7:f5:e2:b3:7b:5d:8e:04:5e:ed:0f:b7:b0:
         db:9e:0e:52:5c:e7:cb:b0:ea:46:80:10:3e:2e:80:7c:13:4a:
         46:ec:dc:b1:c8:d5:14:5b:e2:31:30:5b:ae:09:2f:ba:7a:7d:
         fb:2e:6a:05:65:9a:d2:4b:22:cc:43:da:87:da:98:6b:14:02:
         12:06:3f:e6:68:28:2f:14:b8:07:89:9c:63:5c:0a:84:fa:a6:
         65:0a:ec:b4:23:fc:4c:fa:68:30:dc:9c:f1:36:1d:bc:e7:e9:
         b6:e4:bd:22:00:d0:37:cf:06:3a:05:76:b3:da:39:f2:f0:21:
         24:9f:ab:55:af:3e:21:62:85:90:4d:c2:b2:6f:12:49:a9:74:
         27:95:ac:a0:36:a5:a8:09:49:7f:fa:2c:52:cd:84:51:1b:07:
         be:07:71:b0:03:90:b8:88:73:16:93:b4:db:91:3f:cc:2c:43:
         17:53:60:23:39:3d:60:7d:48:0a:e2:03:4b:15:70:c0:96:38:
         5d:ff:9f:79:55:f4:7f:24:d1:84:c5:22:73:07:f4:01:d3:45:
         b9:9a:6b:48:0c:c3:05:c9:ad:2b:b4:e1:6f:74:8c:c8:c5:47:
         23:12:b9:f1:ba:e6:22:34:80:cd:3c:30:b7:a3:d1:ba:3b:56:
         af:c8:a8:f8:2b:fd:53:4e:97:2c:2e:b5:55:f3:ed:84:21:3d:
         81:4e:73:6c:24:e2:4e:87:d4:52:a7:54:6a:7d:36:bb:e6:52:
         91:d1:8b:c4:93:6b:ef:eb:0f:38:d5:71:7d:21:24:89:29:6a:
         22:cb:6d:09:5a:e2:85:e0
-----BEGIN CERTIFICATE-----
MIIGqDCCBJCgAwIBAgIDAwAAMA0GCSqGSIb3DQEBDQUAMIHSMQswCQYDVQQGEwJV
UzESMBAGA1UECAwJVGVubmVzc2VlMRIwEAYDVQQHDAlLbm94dmlsbGUxIDAeBgNV
BAoMF1VuaXZlcnNpdHkgb2YgVGVubmVzc2VlMT8wPQYDVQQLDDZFbGVjdHJpY2Fs
IEVuZ2luZWVyaW5nIGFuZCBDb21wdXRlciBTY2llbmNlIERlcGFydG1lbnQxFDAS
BgNVBAMMC0ludGVybmFsIENBMSIwIAYJKoZIhvcNAQkBFhNpdGhlbHBAZWVjcy51
dGsuZWR1MB4XDTE1MDMxNTE2NTAyMVoXDTIwMDMxMzE2NTAyMVowgdIxCzAJBgNV
BAYTAlVTMRIwEAYDVQQIDAlUZW5uZXNzZWUxEjAQBgNVBAcMCUtub3h2aWxsZTEg
MB4GA1UECgwXVW5pdmVyc2l0eSBvZiBUZW5uZXNzZWUxPzA9BgNVBAsMNkVsZWN0
cmljYWwgRW5naW5lZXJpbmcgYW5kIENvbXB1dGVyIFNjaWVuY2UgRGVwYXJ0bWVu
dDEUMBIGA1UEAwwLSW50ZXJuYWwgQ0ExIjAgBgkqhkiG9w0BCQEWE2l0aGVscEBl
ZWNzLnV0ay5lZHUwggIiMA0GCSqGSIb3DQEBAQUAA4ICDwAwggIKAoICAQC/Cg5Y
/DmdFAGV20/1B2re/bvYDZB2SokMyETiY7VzINlY6zTqCa3xDYnvFZhMoTYdBXsB
9jgkjfvGm5OeMFHK0NvIbiTT8aPoN9x4Jir3bVbap8bQ9utDyQZAEoSHrQRXZ7yF
YCT42epMe1mV88JYIRvkqY8U3eVgbujZ814SW/zBu86qlfgbIr01Lm8KqxxVGkYV
Bb7IeijG6BdANGNrjOe9LCO7/cHPpknvgmPb2Za6MSdxkzJZZjrsJOwIdq/umiZj
Y8Po1Q7sFZ4aq7aAidhLhJy8DdhL5Z/d5Oai4hbRnWY70Y1WM5OZOoGd+lkyg9GS
Zgbq2wT2HTuPp2CuslcvMDBwmGVkOHgzOUEVHKZhOw+5G6yLr3rwGDq6pQPS2TEt
EnfIXdsdTt8tvt3swN5w/a4v3m0lrd6W7s2znyrGq3g3Mhc+jSgbLj9qZptnGmXA
vdj8FOjkiqJ2eMebfuY298l8f/CWJvDvekslvo7Z4BkgjGnES4gQqoRiHEkPUJT9
S5+6OsRJ3Ldnq1D4VcH73eq6SChK5pEJ8kAyrUjSANDjCi1/V/DJH4VrAiADzbEk
0OR969WbPh8qY5qtdymdqKa18pIuBhmaiBxl59MRj5LUN5/fwtbB4js7v56Ix5e+
vQWOUNbxFaT6yxN78EJzupLcWrzgwN2K3BQ3QwIDAQABo4GEMIGBMB0GA1UdDgQW
BBTpWZ8XNKQCRsJ4ns5O/KZgfPf1cTAfBgNVHSMEGDAWgBTpWZ8XNKQCRsJ4ns5O
/KZgfPf1cTASBgNVHRMBAf8ECDAGAQH/AgEBMAsGA1UdDwQEAwIBhjAeBgNVHREE
FzAVgRNpdGhlbHBAZWVjcy51dGsuZWR1MA0GCSqGSIb3DQEBDQUAA4ICAQAJ0aRk
h9T0JvGWK5QVvTMQQ0TAF1ltkSB+0oyxpVExlPRsSYxyLKF/RM/LnpqFHg92RXDO
aZJazTSdUfLWk4WZ1G5bc5AgC+S1YAst0MWVSF0gbnU8B5M0tG6CrzaI/bxbgNES
p0ZDw3Z1qSGnC77nssgV+9Ua2hmfV7Ls3l3FlYpt4evM1UdPrIzd6OJzc5Teiz5u
OT6XylWG8fD7RYQyt5p9mjVcSK0fzSSQMY86OIvB3GrKStlTWy2dVzq6WkBVQBMH
uzxOrH02Xrf14rN7XY4EXu0Pt7Dbng5SXOfLsOpGgBA+LoB8E0pG7NyxyNUUW+Ix
MFuuCS+6en37LmoFZZrSSyLMQ9qH2phrFAISBj/maCgvFLgHiZxjXAqE+qZlCuy0
I/xM+mgw3JzxNh285+m25L0iANA3zwY6BXaz2jny8CEkn6tVrz4hYoWQTcKybxJJ
qXQnlaygNqWoCUl/+ixSzYRRGwe+B3GwA5C4iHMWk7TbkT/MLEMXU2AjOT1gfUgK
4gNLFXDAljhd/595VfR/JNGExSJzB/QB00W5mmtIDMMFya0rtOFvdIzIxUcjErnx
uuYiNIDNPDC3o9G6O1avyKj4K/1TTpcsLrVV8+2EIT2BTnNsJOJOh9RSp1RqfTa7
5lKR0YvEk2vv6w841XF9ISSJKWoiy20JWuKF4A==
-----END CERTIFICATE-----
